; Function Attrs: nounwind uwtable
define i32 @fdt_node_depth(ptr noundef %0, i32 noundef %1) local_unnamed_addr #0 {
  %3 = alloca i32, align 4
  call void @llvm.lifetime.start.p0(i64 4, ptr nonnull %3) #9
  %4 = tail call i32 @fdt_ro_probe_(ptr noundef %0) #9
  %5 = icmp sgt i32 %4, -1
  br i1 %5, label %6, label %fdt_supernode_atdepth_offset.exit.thread

6:                                                ; preds = %2
  store i32 0, ptr %3, align 4, !tbaa !6
  %7 = icmp sgt i32 %1, -1
  br i1 %7, label %.lr.ph.i.preheader, label %fdt_supernode_atdepth_offset.exit.thread

.lr.ph.i.preheader:                               ; preds = %6
  %8 = icmp eq i32 %1, 0
  br i1 %8, label %.lr.ph.i._crit_edge, label %.lr.ph

.lr.ph.ithread-pre-split:                         ; preds = %.lr.ph
  %.pr = load i32, ptr %3, align 4, !tbaa !6
  %9 = icmp eq i32 %.pr, 0
  %spec.select.i = select i1 %9, i32 %12, i32 %spec.select.i.fr33
  %spec.select.i.fr = freeze i32 %spec.select.i
  %10 = icmp eq i32 %12, %1
  br i1 %10, label %.lr.ph.i._crit_edge, label %.lr.ph

.lr.ph.i._crit_edge:                              ; preds = %.lr.ph.ithread-pre-split, %.lr.ph.i.preheader
  %.lcssa = phi i32 [ 0, %.lr.ph.i.preheader ], [ %.pr, %.lr.ph.ithread-pre-split ]
  %spec.select.i.fr.lcssa = phi i32 [ 0, %.lr.ph.i.preheader ], [ %spec.select.i.fr, %.lr.ph.ithread-pre-split ]
  %11 = icmp slt i32 %.lcssa, 0
  br i1 %11, label %fdt_supernode_atdepth_offset.exit.thread, label %fdt_supernode_atdepth_offset.exit

.lr.ph:                                           ; preds = %.lr.ph.i.preheader, %.lr.ph.ithread-pre-split
  %spec.select.i.fr33 = phi i32 [ %spec.select.i.fr, %.lr.ph.ithread-pre-split ], [ 0, %.lr.ph.i.preheader ]
  %.02530.i32 = phi i32 [ %12, %.lr.ph.ithread-pre-split ], [ 0, %.lr.ph.i.preheader ]
  %12 = call i32 @fdt_next_node(ptr noundef %0, i32 noundef %.02530.i32, ptr noundef nonnull %3) #9
  %.not32.i = icmp ugt i32 %12, %1
  br i1 %.not32.i, label %._crit_edge.i, label %.lr.ph.ithread-pre-split, !llvm.loop !23

._crit_edge.i:                                    ; preds = %.lr.ph
  %or.cond.i = icmp sgt i32 %12, -2
  br i1 %or.cond.i, label %fdt_supernode_atdepth_offset.exit.thread, label %13

13:                                               ; preds = %._crit_edge.i
  %14 = icmp eq i32 %12, -4
  %..025.i = select i1 %14, i32 -11, i32 %12
  br label %fdt_supernode_atdepth_offset.exit.thread

fdt_supernode_atdepth_offset.exit.thread:         ; preds = %2, %._crit_edge.i, %13, %6, %.lr.ph.i._crit_edge
  %.1.i.ph = phi i32 [ -4, %6 ], [ %..025.i, %13 ], [ -4, %._crit_edge.i ], [ %4, %2 ], [ -1, %.lr.ph.i._crit_edge ]
  call void @llvm.lifetime.end.p0(i64 4, ptr nonnull %3) #9
  br label %16

fdt_supernode_atdepth_offset.exit:                ; preds = %.lr.ph.i._crit_edge
  call void @llvm.lifetime.end.p0(i64 4, ptr nonnull %3) #9
  %.not = icmp eq i32 %spec.select.i.fr.lcssa, 0
  %15 = icmp slt i32 %spec.select.i.fr.lcssa, 0
  %spec.select.i.fr. = select i1 %15, i32 %spec.select.i.fr.lcssa, i32 -13
  %spec.select = select i1 %.not, i32 %.lcssa, i32 %spec.select.i.fr.
  br label %16

16:                                               ; preds = %fdt_supernode_atdepth_offset.exit, %fdt_supernode_atdepth_offset.exit.thread
  %17 = phi i32 [ %.1.i.ph, %fdt_supernode_atdepth_offset.exit.thread ], [ %spec.select, %fdt_supernode_atdepth_offset.exit ]
  ret i32 %17
}